target datalayout = "e-m:e-p270:32:32-p271:32:32-p272:64:64-i64:64-i128:128-f80:128-n8:16:32:64-S128"
target triple = "x86_64-pc-linux-gnu"

; Function Attrs: mustprogress nounwind uwtable
define internal noundef i32 @_ZL13_matchFromSetPKDsS0_a(ptr noundef %0, ptr noundef %1, i8 noundef signext %2) #3 {
  %4 = alloca i32, align 4
  %5 = alloca ptr, align 8
  %6 = alloca ptr, align 8
  %7 = alloca i8, align 1
  %8 = alloca i32, align 4
  %9 = alloca i32, align 4
  %10 = alloca i32, align 4
  %11 = alloca i32, align 4
  %12 = alloca i32, align 4
  %13 = alloca i32, align 4
  %14 = alloca i16, align 2
  %15 = alloca i16, align 2
  %16 = alloca i32, align 4
  %17 = alloca i16, align 2
  %18 = alloca i16, align 2
  store ptr %0, ptr %5, align 8, !tbaa !3
  store ptr %1, ptr %6, align 8, !tbaa !3
  store i8 %2, ptr %7, align 1, !tbaa !30
  call void @llvm.lifetime.start.p0(i64 4, ptr %8) #7
  call void @llvm.lifetime.start.p0(i64 4, ptr %9) #7
  call void @llvm.lifetime.start.p0(i64 4, ptr %10) #7
  call void @llvm.lifetime.start.p0(i64 4, ptr %11) #7
  call void @llvm.lifetime.start.p0(i64 4, ptr %12) #7
  call void @llvm.lifetime.start.p0(i64 4, ptr %13) #7
  call void @llvm.lifetime.start.p0(i64 2, ptr %14) #7
  call void @llvm.lifetime.start.p0(i64 2, ptr %15) #7
  store i32 0, ptr %9, align 4, !tbaa !8
  br label %19

19:                                               ; preds = %35, %3
  %20 = load ptr, ptr %6, align 8, !tbaa !3
  %21 = load i32, ptr %9, align 4, !tbaa !8
  %22 = sext i32 %21 to i64
  %23 = getelementptr inbounds i16, ptr %20, i64 %22
  %24 = load i16, ptr %23, align 2, !tbaa !10
  store i16 %24, ptr %14, align 2, !tbaa !10
  %25 = zext i16 %24 to i32
  %26 = icmp ne i32 %25, 0
  br i1 %26, label %27, label %33

27:                                               ; preds = %19
  %28 = load i16, ptr %14, align 2, !tbaa !10
  %29 = zext i16 %28 to i32
  %30 = and i32 %29, -2048
  %31 = icmp eq i32 %30, 55296
  %32 = xor i1 %31, true
  br label %33

33:                                               ; preds = %27, %19
  %34 = phi i1 [ false, %19 ], [ %32, %27 ]
  br i1 %34, label %35, label %38

35:                                               ; preds = %33
  %36 = load i32, ptr %9, align 4, !tbaa !8
  %37 = add nsw i32 %36, 1
  store i32 %37, ptr %9, align 4, !tbaa !8
  br label %19, !llvm.loop !31

38:                                               ; preds = %33
  %39 = load i32, ptr %9, align 4, !tbaa !8
  store i32 %39, ptr %8, align 4, !tbaa !8
  br label %40

40:                                               ; preds = %48, %38
  %41 = load ptr, ptr %6, align 8, !tbaa !3
  %42 = load i32, ptr %8, align 4, !tbaa !8
  %43 = sext i32 %42 to i64
  %44 = getelementptr inbounds i16, ptr %41, i64 %43
  %45 = load i16, ptr %44, align 2, !tbaa !10
  %46 = zext i16 %45 to i32
  %47 = icmp ne i32 %46, 0
  br i1 %47, label %48, label %51

48:                                               ; preds = %40
  %49 = load i32, ptr %8, align 4, !tbaa !8
  %50 = add nsw i32 %49, 1
  store i32 %50, ptr %8, align 4, !tbaa !8
  br label %40, !llvm.loop !32

51:                                               ; preds = %40
  store i32 0, ptr %10, align 4, !tbaa !8
  br label %52

52:                                               ; preds = %259, %51
  %53 = load ptr, ptr %5, align 8, !tbaa !3
  %54 = load i32, ptr %10, align 4, !tbaa !8
  %55 = sext i32 %54 to i64
  %56 = getelementptr inbounds i16, ptr %53, i64 %55
  %57 = load i16, ptr %56, align 2, !tbaa !10
  store i16 %57, ptr %14, align 2, !tbaa !10
  %58 = zext i16 %57 to i32
  %59 = icmp ne i32 %58, 0
  br i1 %59, label %60, label %260

60:                                               ; preds = %52
  %61 = load i32, ptr %10, align 4, !tbaa !8
  %62 = add nsw i32 %61, 1
  store i32 %62, ptr %10, align 4, !tbaa !8
  %63 = load i16, ptr %14, align 2, !tbaa !10
  %64 = zext i16 %63 to i32
  %65 = and i32 %64, -2048
  %66 = icmp eq i32 %65, 55296
  br i1 %66, label %117, label %67

67:                                               ; preds = %60
  %68 = load i8, ptr %7, align 1, !tbaa !30
  %69 = icmp ne i8 %68, 0
  br i1 %69, label %70, label %93

70:                                               ; preds = %67
  store i32 0, ptr %11, align 4, !tbaa !8
  br label %71

71:                                               ; preds = %89, %70
  %72 = load i32, ptr %11, align 4, !tbaa !8
  %73 = load i32, ptr %8, align 4, !tbaa !8
  %74 = icmp slt i32 %72, %73
  br i1 %74, label %75, label %92

75:                                               ; preds = %71
  %76 = load i16, ptr %14, align 2, !tbaa !10
  %77 = zext i16 %76 to i32
  %78 = load ptr, ptr %6, align 8, !tbaa !3
  %79 = load i32, ptr %11, align 4, !tbaa !8
  %80 = sext i32 %79 to i64
  %81 = getelementptr inbounds i16, ptr %78, i64 %80
  %82 = load i16, ptr %81, align 2, !tbaa !10
  %83 = zext i16 %82 to i32
  %84 = icmp eq i32 %77, %83
  br i1 %84, label %85, label %88

85:                                               ; preds = %75
  %86 = load i32, ptr %10, align 4, !tbaa !8
  %87 = sub nsw i32 %86, 1
  store i32 %87, ptr %4, align 4
  store i32 1, ptr %16, align 4
  br label %264

88:                                               ; preds = %75
  br label %89

89:                                               ; preds = %88
  %90 = load i32, ptr %11, align 4, !tbaa !8
  %91 = add nsw i32 %90, 1
  store i32 %91, ptr %11, align 4, !tbaa !8
  br label %71, !llvm.loop !33

92:                                               ; preds = %71
  br label %116

93:                                               ; preds = %67
  store i32 0, ptr %11, align 4, !tbaa !8
  br label %94

94:                                               ; preds = %110, %93
  %95 = load i32, ptr %11, align 4, !tbaa !8
  %96 = load i32, ptr %8, align 4, !tbaa !8
  %97 = icmp slt i32 %95, %96
  br i1 %97, label %98, label %113

98:                                               ; preds = %94
  %99 = load i16, ptr %14, align 2, !tbaa !10
  %100 = zext i16 %99 to i32
  %101 = load ptr, ptr %6, align 8, !tbaa !3
  %102 = load i32, ptr %11, align 4, !tbaa !8
  %103 = sext i32 %102 to i64
  %104 = getelementptr inbounds i16, ptr %101, i64 %103
  %105 = load i16, ptr %104, align 2, !tbaa !10
  %106 = zext i16 %105 to i32
  %107 = icmp eq i32 %100, %106
  br i1 %107, label %108, label %109

108:                                              ; preds = %98
  br label %259

109:                                              ; preds = %98
  br label %110

110:                                              ; preds = %109
  %111 = load i32, ptr %11, align 4, !tbaa !8
  %112 = add nsw i32 %111, 1
  store i32 %112, ptr %11, align 4, !tbaa !8
  br label %94, !llvm.loop !34

113:                                              ; preds = %94
  %114 = load i32, ptr %10, align 4, !tbaa !8
  %115 = sub nsw i32 %114, 1
  store i32 %115, ptr %4, align 4
  store i32 1, ptr %16, align 4
  br label %264

116:                                              ; preds = %92
  br label %258

117:                                              ; preds = %60
  %118 = load i16, ptr %14, align 2, !tbaa !10
  %119 = zext i16 %118 to i32
  %120 = and i32 %119, 1024
  %121 = icmp eq i32 %120, 0
  br i1 %121, label %122, label %141

122:                                              ; preds = %117
  %123 = load ptr, ptr %5, align 8, !tbaa !3
  %124 = load i32, ptr %10, align 4, !tbaa !8
  %125 = sext i32 %124 to i64
  %126 = getelementptr inbounds i16, ptr %123, i64 %125
  %127 = load i16, ptr %126, align 2, !tbaa !10
  store i16 %127, ptr %15, align 2, !tbaa !10
  %128 = zext i16 %127 to i32
  %129 = and i32 %128, -1024
  %130 = icmp eq i32 %129, 56320
  br i1 %130, label %131, label %141

131:                                              ; preds = %122
  %132 = load i32, ptr %10, align 4, !tbaa !8
  %133 = add nsw i32 %132, 1
  store i32 %133, ptr %10, align 4, !tbaa !8
  %134 = load i16, ptr %14, align 2, !tbaa !10
  %135 = zext i16 %134 to i32
  %136 = shl i32 %135, 10
  %137 = load i16, ptr %15, align 2, !tbaa !10
  %138 = zext i16 %137 to i32
  %139 = add nsw i32 %136, %138
  %140 = sub nsw i32 %139, 56613888
  store i32 %140, ptr %12, align 4, !tbaa !8
  br label %144

141:                                              ; preds = %122, %117
  %142 = load i16, ptr %14, align 2, !tbaa !10
  %143 = zext i16 %142 to i32
  store i32 %143, ptr %12, align 4, !tbaa !8
  br label %144

144:                                              ; preds = %141, %131
  %145 = load i8, ptr %7, align 1, !tbaa !30
  %146 = icmp ne i8 %145, 0
  br i1 %146, label %147, label %202

147:                                              ; preds = %144
  %148 = load i32, ptr %9, align 4, !tbaa !8
  store i32 %148, ptr %11, align 4, !tbaa !8
  br label %149

149:                                              ; preds = %200, %147
  %150 = load i32, ptr %11, align 4, !tbaa !8
  %151 = load i32, ptr %8, align 4, !tbaa !8
  %152 = icmp slt i32 %150, %151
  br i1 %152, label %153, label %201

153:                                              ; preds = %149
  br label %154

154:                                              ; preds = %153
  %155 = load ptr, ptr %6, align 8, !tbaa !3
  %156 = load i32, ptr %11, align 4, !tbaa !8
  %157 = add nsw i32 %156, 1
  store i32 %157, ptr %11, align 4, !tbaa !8
  %158 = sext i32 %156 to i64
  %159 = getelementptr inbounds i16, ptr %155, i64 %158
  %160 = load i16, ptr %159, align 2, !tbaa !10
  %161 = zext i16 %160 to i32
  store i32 %161, ptr %13, align 4, !tbaa !8
  %162 = load i32, ptr %13, align 4, !tbaa !8
  %163 = and i32 %162, -1024
  %164 = icmp eq i32 %163, 55296
  br i1 %164, label %165, label %188

165:                                              ; preds = %154
  call void @llvm.lifetime.start.p0(i64 2, ptr %17) #7
  %166 = load i32, ptr %11, align 4, !tbaa !8
  %167 = load i32, ptr %8, align 4, !tbaa !8
  %168 = icmp ne i32 %166, %167
  br i1 %168, label %169, label %187

169:                                              ; preds = %165
  %170 = load ptr, ptr %6, align 8, !tbaa !3
  %171 = load i32, ptr %11, align 4, !tbaa !8
  %172 = sext i32 %171 to i64
  %173 = getelementptr inbounds i16, ptr %170, i64 %172
  %174 = load i16, ptr %173, align 2, !tbaa !10
  store i16 %174, ptr %17, align 2, !tbaa !35
  %175 = zext i16 %174 to i32
  %176 = and i32 %175, -1024
  %177 = icmp eq i32 %176, 56320
  br i1 %177, label %178, label %187

178:                                              ; preds = %169
  %179 = load i32, ptr %11, align 4, !tbaa !8
  %180 = add nsw i32 %179, 1
  store i32 %180, ptr %11, align 4, !tbaa !8
  %181 = load i32, ptr %13, align 4, !tbaa !8
  %182 = shl i32 %181, 10
  %183 = load i16, ptr %17, align 2, !tbaa !35
  %184 = zext i16 %183 to i32
  %185 = add nsw i32 %182, %184
  %186 = sub nsw i32 %185, 56613888
  store i32 %186, ptr %13, align 4, !tbaa !8
  br label %187

187:                                              ; preds = %178, %169, %165
  call void @llvm.lifetime.end.p0(i64 2, ptr %17) #7
  br label %188

188:                                              ; preds = %187, %154
  br label %189

189:                                              ; preds = %188
  br label %190

190:                                              ; preds = %189
  %191 = load i32, ptr %12, align 4, !tbaa !8
  %192 = load i32, ptr %13, align 4, !tbaa !8
  %193 = icmp eq i32 %191, %192
  br i1 %193, label %194, label %200

194:                                              ; preds = %190
  %195 = load i32, ptr %10, align 4, !tbaa !8
  %196 = load i32, ptr %12, align 4, !tbaa !8
  %197 = icmp ule i32 %196, 65535
  %198 = select i1 %197, i32 1, i32 2
  %199 = sub nsw i32 %195, %198
  store i32 %199, ptr %4, align 4
  store i32 1, ptr %16, align 4
  br label %264

200:                                              ; preds = %190
  br label %149, !llvm.loop !37

201:                                              ; preds = %149
  br label %257

202:                                              ; preds = %144
  %203 = load i32, ptr %9, align 4, !tbaa !8
  store i32 %203, ptr %11, align 4, !tbaa !8
  br label %204

204:                                              ; preds = %250, %202
  %205 = load i32, ptr %11, align 4, !tbaa !8
  %206 = load i32, ptr %8, align 4, !tbaa !8
  %207 = icmp slt i32 %205, %206
  br i1 %207, label %208, label %251

208:                                              ; preds = %204
  br label %209

209:                                              ; preds = %208
  %210 = load ptr, ptr %6, align 8, !tbaa !3
  %211 = load i32, ptr %11, align 4, !tbaa !8
  %212 = add nsw i32 %211, 1
  store i32 %212, ptr %11, align 4, !tbaa !8
  %213 = sext i32 %211 to i64
  %214 = getelementptr inbounds i16, ptr %210, i64 %213
  %215 = load i16, ptr %214, align 2, !tbaa !10
  %216 = zext i16 %215 to i32
  store i32 %216, ptr %13, align 4, !tbaa !8
  %217 = load i32, ptr %13, align 4, !tbaa !8
  %218 = and i32 %217, -1024
  %219 = icmp eq i32 %218, 55296
  br i1 %219, label %220, label %243

220:                                              ; preds = %209
  call void @llvm.lifetime.start.p0(i64 2, ptr %18) #7
  %221 = load i32, ptr %11, align 4, !tbaa !8
  %222 = load i32, ptr %8, align 4, !tbaa !8
  %223 = icmp ne i32 %221, %222
  br i1 %223, label %224, label %242

224:                                              ; preds = %220
  %225 = load ptr, ptr %6, align 8, !tbaa !3
  %226 = load i32, ptr %11, align 4, !tbaa !8
  %227 = sext i32 %226 to i64
  %228 = getelementptr inbounds i16, ptr %225, i64 %227
  %229 = load i16, ptr %228, align 2, !tbaa !10
  store i16 %229, ptr %18, align 2, !tbaa !35
  %230 = zext i16 %229 to i32
  %231 = and i32 %230, -1024
  %232 = icmp eq i32 %231, 56320
  br i1 %232, label %233, label %242

233:                                              ; preds = %224
  %234 = load i32, ptr %11, align 4, !tbaa !8
  %235 = add nsw i32 %234, 1
  store i32 %235, ptr %11, align 4, !tbaa !8
  %236 = load i32, ptr %13, align 4, !tbaa !8
  %237 = shl i32 %236, 10
  %238 = load i16, ptr %18, align 2, !tbaa !35
  %239 = zext i16 %238 to i32
  %240 = add nsw i32 %237, %239
  %241 = sub nsw i32 %240, 56613888
  store i32 %241, ptr %13, align 4, !tbaa !8
  br label %242

242:                                              ; preds = %233, %224, %220
  call void @llvm.lifetime.end.p0(i64 2, ptr %18) #7
  br label %243

243:                                              ; preds = %242, %209
  br label %244

244:                                              ; preds = %243
  br label %245

245:                                              ; preds = %244
  %246 = load i32, ptr %12, align 4, !tbaa !8
  %247 = load i32, ptr %13, align 4, !tbaa !8
  %248 = icmp eq i32 %246, %247
  br i1 %248, label %249, label %250

249:                                              ; preds = %245
  br label %259

250:                                              ; preds = %245
  br label %204, !llvm.loop !38

251:                                              ; preds = %204
  %252 = load i32, ptr %10, align 4, !tbaa !8
  %253 = load i32, ptr %12, align 4, !tbaa !8
  %254 = icmp ule i32 %253, 65535
  %255 = select i1 %254, i32 1, i32 2
  %256 = sub nsw i32 %252, %255
  store i32 %256, ptr %4, align 4
  store i32 1, ptr %16, align 4
  br label %264

257:                                              ; preds = %201
  br label %258

258:                                              ; preds = %257, %116
  br label %259

259:                                              ; preds = %258, %249, %108
  br label %52, !llvm.loop !39

260:                                              ; preds = %52
  %261 = load i32, ptr %10, align 4, !tbaa !8
  %262 = sub nsw i32 0, %261
  %263 = sub nsw i32 %262, 1
  store i32 %263, ptr %4, align 4
  store i32 1, ptr %16, align 4
  br label %264

264:                                              ; preds = %260, %251, %194, %113, %85
  call void @llvm.lifetime.end.p0(i64 2, ptr %15) #7
  call void @llvm.lifetime.end.p0(i64 2, ptr %14) #7
  call void @llvm.lifetime.end.p0(i64 4, ptr %13) #7
  call void @llvm.lifetime.end.p0(i64 4, ptr %12) #7
  call void @llvm.lifetime.end.p0(i64 4, ptr %11) #7
  call void @llvm.lifetime.end.p0(i64 4, ptr %10) #7
  call void @llvm.lifetime.end.p0(i64 4, ptr %9) #7
  call void @llvm.lifetime.end.p0(i64 4, ptr %8) #7
  %265 = load i32, ptr %4, align 4
  ret i32 %265
}