; Function Attrs: mustprogress nofree norecurse nosync nounwind willreturn memory(argmem: read) uwtable
define internal fastcc noundef i32 @_ZL13_matchFromSetPKDsS0_a(ptr noundef readonly captures(none) %0, ptr noundef readonly captures(none) %1, i8 noundef signext range(i8 0, 2) %2) unnamed_addr #2 {
  br label %4

4:                                                ; preds = %4, %3
  %indvars.iv149 = phi i32 [ %indvars.iv.next150, %4 ], [ 0, %3 ]
  %indvars.iv = phi i64 [ %indvars.iv.next, %4 ], [ 0, %3 ]
  %5 = getelementptr inbounds nuw i16, ptr %1, i64 %indvars.iv
  %6 = load i16, ptr %5, align 2, !tbaa !3
  %7 = icmp ne i16 %6, 0
  %8 = and i16 %6, -2048
  %9 = icmp ne i16 %8, -10240
  %10 = and i1 %7, %9
  %indvars.iv.next = add nuw nsw i64 %indvars.iv, 1
  %indvars.iv.next150 = add nuw i32 %indvars.iv149, 1
  br i1 %10, label %4, label %.preheader102, !llvm.loop !25

.preheader102:                                    ; preds = %4, %.preheader102
  %indvars.iv151 = phi i32 [ %indvars.iv.next152, %.preheader102 ], [ %indvars.iv149, %4 ]
  %indvars.iv143 = phi i64 [ %indvars.iv.next144, %.preheader102 ], [ %indvars.iv, %4 ]
  %11 = getelementptr inbounds nuw i16, ptr %1, i64 %indvars.iv143
  %12 = load i16, ptr %11, align 2, !tbaa !3
  %.not = icmp eq i16 %12, 0
  %indvars.iv.next144 = add nuw nsw i64 %indvars.iv143, 1
  %indvars.iv.next152 = add nuw i32 %indvars.iv151, 1
  br i1 %.not, label %.preheader101, label %.preheader102, !llvm.loop !26

.preheader101:                                    ; preds = %.preheader102
  %13 = trunc nuw nsw i64 %indvars.iv to i32
  %14 = trunc nuw nsw i64 %indvars.iv143 to i32
  %15 = load i16, ptr %0, align 2, !tbaa !3
  %.not86113 = icmp eq i16 %15, 0
  br i1 %.not86113, label %._crit_edge, label %.lr.ph115

.lr.ph115:                                        ; preds = %.preheader101
  %16 = zext i16 %15 to i32
  %.not87 = icmp eq i8 %2, 0
  %.not122 = icmp eq i64 %indvars.iv143, 0
  %wide.trip.count169 = zext i32 %indvars.iv151 to i64
  br i1 %.not87, label %.lr.ph115.split.us, label %.lr.ph115.split

.lr.ph115.split.us:                               ; preds = %.lr.ph115, %.loopexit.us
  %17 = phi i32 [ %68, %.loopexit.us ], [ %16, %.lr.ph115 ]
  %18 = phi i16 [ %67, %.loopexit.us ], [ %15, %.lr.ph115 ]
  %.078114.us = phi i32 [ %.179.us, %.loopexit.us ], [ 0, %.lr.ph115 ]
  %19 = add nsw i32 %.078114.us, 1
  %20 = and i32 %17, 63488
  %21 = icmp eq i32 %20, 55296
  br i1 %21, label %26, label %.preheader95.us

22:                                               ; preds = %.lr.ph111.us
  %indvars.iv.next166 = add nuw nsw i64 %indvars.iv165, 1
  %exitcond170.not = icmp eq i64 %indvars.iv.next166, %wide.trip.count169
  br i1 %exitcond170.not, label %.loopexit96, label %.lr.ph111.us, !llvm.loop !27

.lr.ph111.us:                                     ; preds = %.preheader95.us, %22
  %indvars.iv165 = phi i64 [ %indvars.iv.next166, %22 ], [ 0, %.preheader95.us ]
  %23 = getelementptr inbounds nuw i16, ptr %1, i64 %indvars.iv165
  %24 = load i16, ptr %23, align 2, !tbaa !3
  %25 = icmp eq i16 %18, %24
  br i1 %25, label %.loopexit.us, label %22

26:                                               ; preds = %.lr.ph115.split.us
  %27 = and i32 %17, 1024
  %28 = icmp eq i32 %27, 0
  br i1 %28, label %29, label %.preheader.us

29:                                               ; preds = %26
  %30 = sext i32 %19 to i64
  %31 = getelementptr inbounds i16, ptr %0, i64 %30
  %32 = load i16, ptr %31, align 2, !tbaa !3
  %33 = zext i16 %32 to i32
  %34 = and i32 %33, 64512
  %35 = icmp eq i32 %34, 56320
  br i1 %35, label %36, label %.preheader.us

36:                                               ; preds = %29
  %37 = add nsw i32 %.078114.us, 2
  %38 = shl nuw nsw i32 %17, 10
  %39 = add nsw i32 %38, -56613888
  %40 = add nuw nsw i32 %39, %33
  br label %.preheader.us

.preheader.us:                                    ; preds = %36, %29, %26
  %.280.us = phi i32 [ %37, %36 ], [ %19, %29 ], [ %19, %26 ]
  %.073.us = phi i32 [ %40, %36 ], [ %17, %29 ], [ %17, %26 ]
  br label %41

41:                                               ; preds = %.preheader.us, %63
  %.5.us = phi i32 [ %.7.us, %63 ], [ %13, %.preheader.us ]
  %42 = icmp slt i32 %.5.us, %14
  br i1 %42, label %43, label %.split.us

43:                                               ; preds = %41
  %44 = add nsw i32 %.5.us, 1
  %45 = sext i32 %.5.us to i64
  %46 = getelementptr inbounds i16, ptr %1, i64 %45
  %47 = load i16, ptr %46, align 2, !tbaa !3
  %48 = zext i16 %47 to i32
  %49 = and i32 %48, 64512
  %50 = icmp ne i32 %49, 55296
  %.not89.us = icmp eq i32 %44, %14
  %or.cond92.us = select i1 %50, i1 true, i1 %.not89.us
  br i1 %or.cond92.us, label %63, label %51

51:                                               ; preds = %43
  %52 = sext i32 %44 to i64
  %53 = getelementptr inbounds i16, ptr %1, i64 %52
  %54 = load i16, ptr %53, align 2, !tbaa !3
  %55 = zext i16 %54 to i32
  %56 = and i32 %55, 64512
  %57 = icmp eq i32 %56, 56320
  br i1 %57, label %58, label %63

58:                                               ; preds = %51
  %59 = add nsw i32 %.5.us, 2
  %60 = shl nuw nsw i32 %48, 10
  %61 = add nsw i32 %60, -56613888
  %62 = add nuw nsw i32 %61, %55
  br label %63

63:                                               ; preds = %58, %51, %43
  %.7.us = phi i32 [ %44, %43 ], [ %59, %58 ], [ %44, %51 ]
  %.3.us = phi i32 [ %48, %43 ], [ %62, %58 ], [ %48, %51 ]
  %64 = icmp eq i32 %.073.us, %.3.us
  br i1 %64, label %.loopexit.us, label %41, !llvm.loop !28

.loopexit.us:                                     ; preds = %.lr.ph111.us, %63
  %.179.us = phi i32 [ %.280.us, %63 ], [ %19, %.lr.ph111.us ]
  %65 = sext i32 %.179.us to i64
  %66 = getelementptr inbounds i16, ptr %0, i64 %65
  %67 = load i16, ptr %66, align 2, !tbaa !3
  %68 = zext i16 %67 to i32
  %.not86.us = icmp eq i16 %67, 0
  br i1 %.not86.us, label %._crit_edge, label %.lr.ph115.split.us, !llvm.loop !29

.preheader95.us:                                  ; preds = %.lr.ph115.split.us
  br i1 %.not122, label %.loopexit96, label %.lr.ph111.us

.lr.ph115.split:                                  ; preds = %.lr.ph115, %.loopexit94
  %69 = phi i32 [ %125, %.loopexit94 ], [ %16, %.lr.ph115 ]
  %70 = phi i16 [ %124, %.loopexit94 ], [ %15, %.lr.ph115 ]
  %.078114 = phi i32 [ %.179, %.loopexit94 ], [ 0, %.lr.ph115 ]
  %71 = add nsw i32 %.078114, 1
  %72 = and i32 %69, 63488
  %73 = icmp eq i32 %72, 55296
  br i1 %73, label %78, label %.preheader98

.preheader98:                                     ; preds = %.lr.ph115.split
  br i1 %.not122, label %.loopexit94, label %.lr.ph

74:                                               ; preds = %.lr.ph
  %indvars.iv.next147 = add nuw nsw i64 %indvars.iv146, 1
  %exitcond.not = icmp eq i64 %indvars.iv.next147, %wide.trip.count169
  br i1 %exitcond.not, label %.loopexit94, label %.lr.ph, !llvm.loop !30

.lr.ph:                                           ; preds = %.preheader98, %74
  %indvars.iv146 = phi i64 [ %indvars.iv.next147, %74 ], [ 0, %.preheader98 ]
  %75 = getelementptr inbounds nuw i16, ptr %1, i64 %indvars.iv146
  %76 = load i16, ptr %75, align 2, !tbaa !3
  %77 = icmp eq i16 %70, %76
  br i1 %77, label %.loopexit96, label %74

78:                                               ; preds = %.lr.ph115.split
  %79 = and i32 %69, 1024
  %80 = icmp eq i32 %79, 0
  br i1 %80, label %81, label %.preheader93

81:                                               ; preds = %78
  %82 = sext i32 %71 to i64
  %83 = getelementptr inbounds i16, ptr %0, i64 %82
  %84 = load i16, ptr %83, align 2, !tbaa !3
  %85 = zext i16 %84 to i32
  %86 = and i32 %85, 64512
  %87 = icmp eq i32 %86, 56320
  br i1 %87, label %88, label %.preheader93

88:                                               ; preds = %81
  %89 = add nsw i32 %.078114, 2
  %90 = shl nuw nsw i32 %69, 10
  %91 = add nsw i32 %90, -56613888
  %92 = add nuw nsw i32 %91, %85
  br label %.preheader93

.preheader93:                                     ; preds = %78, %81, %88
  %.280 = phi i32 [ %89, %88 ], [ %71, %81 ], [ %71, %78 ]
  %.073 = phi i32 [ %92, %88 ], [ %69, %81 ], [ %69, %78 ]
  br label %93

93:                                               ; preds = %.preheader93, %115
  %.276 = phi i32 [ %.4, %115 ], [ %13, %.preheader93 ]
  %94 = icmp slt i32 %.276, %14
  br i1 %94, label %95, label %.loopexit94

95:                                               ; preds = %93
  %96 = add nsw i32 %.276, 1
  %97 = sext i32 %.276 to i64
  %98 = getelementptr inbounds i16, ptr %1, i64 %97
  %99 = load i16, ptr %98, align 2, !tbaa !3
  %100 = zext i16 %99 to i32
  %101 = and i32 %100, 64512
  %102 = icmp ne i32 %101, 55296
  %.not90 = icmp eq i32 %96, %14
  %or.cond = select i1 %102, i1 true, i1 %.not90
  br i1 %or.cond, label %115, label %103

103:                                              ; preds = %95
  %104 = sext i32 %96 to i64
  %105 = getelementptr inbounds i16, ptr %1, i64 %104
  %106 = load i16, ptr %105, align 2, !tbaa !3
  %107 = zext i16 %106 to i32
  %108 = and i32 %107, 64512
  %109 = icmp eq i32 %108, 56320
  br i1 %109, label %110, label %115

110:                                              ; preds = %103
  %111 = add nsw i32 %.276, 2
  %112 = shl nuw nsw i32 %100, 10
  %113 = add nsw i32 %112, -56613888
  %114 = add nuw nsw i32 %113, %107
  br label %115

115:                                              ; preds = %103, %110, %95
  %.4 = phi i32 [ %96, %95 ], [ %111, %110 ], [ %96, %103 ]
  %.1 = phi i32 [ %100, %95 ], [ %114, %110 ], [ %100, %103 ]
  %116 = icmp eq i32 %.073, %.1
  br i1 %116, label %117, label %93, !llvm.loop !31

117:                                              ; preds = %115
  %118 = icmp samesign ult i32 %.073, 65536
  %.neg91 = select i1 %118, i32 -1, i32 -2
  %119 = add i32 %.neg91, %.280
  br label %.loopexit96

.split.us:                                        ; preds = %41
  %120 = icmp ult i32 %.073.us, 65536
  %.neg = select i1 %120, i32 -1, i32 -2
  %121 = add i32 %.neg, %.280.us
  br label %.loopexit96

.loopexit94:                                      ; preds = %74, %93, %.preheader98
  %.179 = phi i32 [ %71, %.preheader98 ], [ %.280, %93 ], [ %71, %74 ]
  %122 = sext i32 %.179 to i64
  %123 = getelementptr inbounds i16, ptr %0, i64 %122
  %124 = load i16, ptr %123, align 2, !tbaa !3
  %125 = zext i16 %124 to i32
  %.not86 = icmp eq i16 %124, 0
  br i1 %.not86, label %._crit_edge, label %.lr.ph115.split, !llvm.loop !29

._crit_edge:                                      ; preds = %.loopexit94, %.loopexit.us, %.preheader101
  %.078.lcssa = phi i32 [ 0, %.preheader101 ], [ %.179.us, %.loopexit.us ], [ %.179, %.loopexit94 ]
  %126 = xor i32 %.078.lcssa, -1
  br label %.loopexit96

.loopexit96:                                      ; preds = %.lr.ph, %.preheader95.us, %22, %._crit_edge, %.split.us, %117
  %.0 = phi i32 [ %119, %117 ], [ %121, %.split.us ], [ %126, %._crit_edge ], [ %.078114.us, %22 ], [ %.078114.us, %.preheader95.us ], [ %.078114, %.lr.ph ]
  ret i32 %.0
}